target datalayout = "e-m:e-p270:32:32-p271:32:32-p272:64:64-i64:64-i128:128-f80:128-n8:16:32:64-S128"
target triple = "x86_64-pc-linux-gnu"

%"class.google::protobuf::io::CodedInputStream" = type { ptr, ptr, ptr, i32, i32, i32, i8, i8, i32, i32, i32, i32, i32, ptr, ptr }

; Function Attrs: inlinehint mustprogress nounwind uwtable
define linkonce_odr hidden void @_ZN6google8protobuf2io16CodedInputStream7AdvanceEi(ptr noundef nonnull align 8 dereferenceable(80) %0, i32 noundef %1) #6 comdat align 2 {
  %3 = alloca ptr, align 8
  %4 = alloca i32, align 4
  store ptr %0, ptr %3, align 8, !tbaa !8
  store i32 %1, ptr %4, align 4, !tbaa !10
  %5 = load ptr, ptr %3, align 8
  %6 = load i32, ptr %4, align 4, !tbaa !10
  %7 = getelementptr inbounds nuw %"class.google::protobuf::io::CodedInputStream", ptr %5, i32 0, i32 0
  %8 = load ptr, ptr %7, align 8, !tbaa !25
  %9 = sext i32 %6 to i64
  %10 = getelementptr inbounds i8, ptr %8, i64 %9
  store ptr %10, ptr %7, align 8, !tbaa !25
  ret void
}

; Function Attrs: alwaysinline mustprogress uwtable
define linkonce_odr hidden noundef i32 @_ZN6google8protobuf2io16CodedInputStream16ReadTagNoLastTagEv(ptr noundef nonnull align 8 dereferenceable(80) %0) #8 comdat align 2 {
  %2 = alloca i32, align 4
  %3 = alloca ptr, align 8
  %4 = alloca i32, align 4
  %5 = alloca i32, align 4
  store ptr %0, ptr %3, align 8, !tbaa !8
  %6 = load ptr, ptr %3, align 8
  call void @llvm.lifetime.start.p0(i64 4, ptr %4) #3
  store i32 0, ptr %4, align 4, !tbaa !10
  %7 = getelementptr inbounds nuw %"class.google::protobuf::io::CodedInputStream", ptr %6, i32 0, i32 0
  %8 = load ptr, ptr %7, align 8, !tbaa !25
  %9 = getelementptr inbounds nuw %"class.google::protobuf::io::CodedInputStream", ptr %6, i32 0, i32 1
  %10 = load ptr, ptr %9, align 8, !tbaa !32
  %11 = icmp ult ptr %8, %10
  %12 = zext i1 %11 to i64
  %13 = call i64 @llvm.expect.i64(i64 %12, i64 1)
  %14 = icmp ne i64 %13, 0
  br i1 %14, label %15, label %25

15:                                               ; preds = %1
  %16 = getelementptr inbounds nuw %"class.google::protobuf::io::CodedInputStream", ptr %6, i32 0, i32 0
  %17 = load ptr, ptr %16, align 8, !tbaa !25
  %18 = load i8, ptr %17, align 1, !tbaa !33
  %19 = zext i8 %18 to i32
  store i32 %19, ptr %4, align 4, !tbaa !10
  %20 = load i32, ptr %4, align 4, !tbaa !10
  %21 = icmp ult i32 %20, 128
  br i1 %21, label %22, label %24

22:                                               ; preds = %15
  call void @_ZN6google8protobuf2io16CodedInputStream7AdvanceEi(ptr noundef nonnull align 8 dereferenceable(80) %6, i32 noundef 1)
  %23 = load i32, ptr %4, align 4, !tbaa !10
  store i32 %23, ptr %2, align 4
  store i32 1, ptr %5, align 4
  br label %29

24:                                               ; preds = %15
  br label %25

25:                                               ; preds = %24, %1
  %26 = load i32, ptr %4, align 4, !tbaa !10
  %27 = call noundef i32 @_ZN6google8protobuf2io16CodedInputStream15ReadTagFallbackEj(ptr noundef nonnull align 8 dereferenceable(80) %6, i32 noundef %26)
  store i32 %27, ptr %4, align 4, !tbaa !10
  %28 = load i32, ptr %4, align 4, !tbaa !10
  store i32 %28, ptr %2, align 4
  store i32 1, ptr %5, align 4
  br label %29

29:                                               ; preds = %25, %22
  call void @llvm.lifetime.end.p0(i64 4, ptr %4) #3
  %30 = load i32, ptr %2, align 4
  ret i32 %30
}

; Function Attrs: inlinehint mustprogress nounwind uwtable
define linkonce_odr hidden noundef i32 @_ZN6google8protobuf8internal14WireFormatLite14GetTagWireTypeEj(i32 noundef %0) #6 comdat align 2 {
  %2 = alloca i32, align 4
  store i32 %0, ptr %2, align 4, !tbaa !10
  %3 = load i32, ptr %2, align 4, !tbaa !10
  %4 = and i32 %3, 7
  ret i32 %4
}

; Function Attrs: alwaysinline mustprogress uwtable
define linkonce_odr hidden noundef i32 @_ZN6google8protobuf2io16CodedInputStream7ReadTagEv(ptr noundef nonnull align 8 dereferenceable(80) %0) #8 comdat align 2 {
  %2 = alloca ptr, align 8
  store ptr %0, ptr %2, align 8, !tbaa !8
  %3 = load ptr, ptr %2, align 8
  %4 = call noundef i32 @_ZN6google8protobuf2io16CodedInputStream16ReadTagNoLastTagEv(ptr noundef nonnull align 8 dereferenceable(80) %3)
  %5 = getelementptr inbounds nuw %"class.google::protobuf::io::CodedInputStream", ptr %3, i32 0, i32 5
  store i32 %4, ptr %5, align 8, !tbaa !43
  ret i32 %4
}

; Function Attrs: mustprogress uwtable
define hidden noundef zeroext i1 @_ZN6google8protobuf8internal10WireFormat11SkipMessageEPNS0_2io16CodedInputStreamEPNS0_15UnknownFieldSetE(ptr noundef %0, ptr noundef %1) #4 align 2 {
  %3 = alloca i1, align 1
  %4 = alloca ptr, align 8
  %5 = alloca ptr, align 8
  %6 = alloca i32, align 4
  %7 = alloca i32, align 4
  %8 = alloca i32, align 4
  store ptr %0, ptr %4, align 8, !tbaa !8
  store ptr %1, ptr %5, align 8, !tbaa !16
  br label %9

9:                                                ; preds = %2, %31
  call void @llvm.lifetime.start.p0(i64 4, ptr %6) #3
  %10 = load ptr, ptr %4, align 8, !tbaa !8
  %11 = call noundef i32 @_ZN6google8protobuf2io16CodedInputStream7ReadTagEv(ptr noundef nonnull align 8 dereferenceable(80) %10)
  store i32 %11, ptr %6, align 4, !tbaa !10
  %12 = load i32, ptr %6, align 4, !tbaa !10
  %13 = icmp eq i32 %12, 0
  br i1 %13, label %14, label %15

14:                                               ; preds = %9
  store i1 true, ptr %3, align 1
  store i32 1, ptr %7, align 4
  br label %29

15:                                               ; preds = %9
  call void @llvm.lifetime.start.p0(i64 4, ptr %8) #3
  %16 = load i32, ptr %6, align 4, !tbaa !10
  %17 = call noundef i32 @_ZN6google8protobuf8internal14WireFormatLite14GetTagWireTypeEj(i32 noundef %16)
  store i32 %17, ptr %8, align 4, !tbaa !19
  %18 = load i32, ptr %8, align 4, !tbaa !19
  %19 = icmp eq i32 %18, 4
  br i1 %19, label %20, label %21

20:                                               ; preds = %15
  store i1 true, ptr %3, align 1
  store i32 1, ptr %7, align 4
  br label %28

21:                                               ; preds = %15
  %22 = load ptr, ptr %4, align 8, !tbaa !8
  %23 = load i32, ptr %6, align 4, !tbaa !10
  %24 = load ptr, ptr %5, align 8, !tbaa !16
  %25 = call noundef zeroext i1 @_ZN6google8protobuf8internal10WireFormat9SkipFieldEPNS0_2io16CodedInputStreamEjPNS0_15UnknownFieldSetE(ptr noundef %22, i32 noundef %23, ptr noundef %24)
  br i1 %25, label %27, label %26

26:                                               ; preds = %21
  store i1 false, ptr %3, align 1
  store i32 1, ptr %7, align 4
  br label %28

27:                                               ; preds = %21
  store i32 0, ptr %7, align 4
  br label %28

28:                                               ; preds = %27, %26, %20
  call void @llvm.lifetime.end.p0(i64 4, ptr %8) #3
  br label %29

29:                                               ; preds = %28, %14
  call void @llvm.lifetime.end.p0(i64 4, ptr %6) #3
  %30 = load i32, ptr %7, align 4
  switch i32 %30, label %34 [
    i32 0, label %31
    i32 1, label %32
  ]

31:                                               ; preds = %29
  br label %9, !llvm.loop !21

32:                                               ; preds = %29
  %33 = load i1, ptr %3, align 1
  ret i1 %33

34:                                               ; preds = %29
  unreachable
}