; Function Attrs: mustprogress uwtable
define hidden noundef zeroext i1 @_ZN6google8protobuf8internal10WireFormat11SkipMessageEPNS0_2io16CodedInputStreamEPNS0_15UnknownFieldSetE(ptr noundef %0, ptr noundef %1) local_unnamed_addr #3 align 2 {
  %3 = getelementptr inbounds nuw i8, ptr %0, i64 8
  %4 = getelementptr inbounds nuw i8, ptr %0, i64 32
  br label %5

5:                                                ; preds = %20, %2
  %6 = load ptr, ptr %0, align 8, !tbaa !10
  %7 = load ptr, ptr %3, align 8, !tbaa !18
  %8 = icmp ult ptr %6, %7
  br i1 %8, label %9, label %15, !prof !19

9:                                                ; preds = %5
  %10 = load i8, ptr %6, align 1, !tbaa !20
  %11 = zext i8 %10 to i32
  %12 = icmp sgt i8 %10, -1
  br i1 %12, label %13, label %15

13:                                               ; preds = %9
  %14 = getelementptr inbounds nuw i8, ptr %6, i64 1
  store ptr %14, ptr %0, align 8, !tbaa !10
  br label %_ZN6google8protobuf2io16CodedInputStream16ReadTagNoLastTagEv.exit

15:                                               ; preds = %9, %5
  %.0.i = phi i32 [ %11, %9 ], [ 0, %5 ]
  %16 = tail call noundef i32 @_ZN6google8protobuf2io16CodedInputStream15ReadTagFallbackEj(ptr noundef nonnull align 8 dereferenceable(80) %0, i32 noundef %.0.i)
  br label %_ZN6google8protobuf2io16CodedInputStream16ReadTagNoLastTagEv.exit

_ZN6google8protobuf2io16CodedInputStream16ReadTagNoLastTagEv.exit: ; preds = %13, %15
  %.05.i = phi i32 [ %11, %13 ], [ %16, %15 ]
  store i32 %.05.i, ptr %4, align 8, !tbaa !24
  %17 = icmp eq i32 %.05.i, 0
  %18 = and i32 %.05.i, 7
  %19 = icmp eq i32 %18, 4
  %or.cond = or i1 %17, %19
  br i1 %or.cond, label %22, label %20

20:                                               ; preds = %_ZN6google8protobuf2io16CodedInputStream16ReadTagNoLastTagEv.exit
  %21 = tail call noundef zeroext i1 @_ZN6google8protobuf8internal10WireFormat9SkipFieldEPNS0_2io16CodedInputStreamEjPNS0_15UnknownFieldSetE(ptr noundef nonnull %0, i32 noundef %.05.i, ptr noundef %1)
  br i1 %21, label %5, label %22

22:                                               ; preds = %_ZN6google8protobuf2io16CodedInputStream16ReadTagNoLastTagEv.exit, %20
  ret i1 %or.cond
}